; Function Attrs: mustprogress uwtable
define hidden noundef zeroext i1 @_ZN4cvc58internal6theory11quantifiers19QueryGeneratorBasic7addTermENS0_12NodeTemplateILb1EEERSt6vectorIS5_SaIS5_EE(ptr noundef nonnull align 8 dereferenceable(128) %this, ptr noundef nonnull %n, ptr noundef nonnull align 8 dereferenceable(24) %queries) unnamed_addr #3 align 2 personality ptr @__gxx_personality_v0 {
entry:
  %ssi = alloca %"struct.cvc5::internal::theory::SubsolverSetupInfo", align 8
  %r = alloca %"class.cvc5::internal::Result", align 8
  %agg.tmp = alloca %"class.cvc5::internal::NodeTemplate", align 8
  %agg.tmp4 = alloca %"class.cvc5::internal::NodeTemplate", align 8
  tail call void @_ZNK4cvc58internal6theory11quantifiers14QueryGenerator13ensureBooleanERKNS0_12NodeTemplateILb1EEE(ptr nonnull align 8 poison, ptr noundef nonnull align 8 dereferenceable(8) %n)
  %d_env = getelementptr inbounds i8, ptr %this, i64 8
  %0 = load ptr, ptr %d_env, align 8
  call void @_ZN4cvc58internal6theory18SubsolverSetupInfoC1ERKNS0_3EnvE(ptr noundef nonnull align 8 dereferenceable(32) %ssi, ptr noundef nonnull align 8 dereferenceable(576) %0)
  %1 = load ptr, ptr %n, align 8
  store ptr %1, ptr %agg.tmp, align 8
  %bf.load.i.i = load i64, ptr %1, align 8
  %bf.lshr.i.i = lshr i64 %bf.load.i.i, 40
  %2 = trunc i64 %bf.lshr.i.i to i32
  %bf.cast.i.i = and i32 %2, 1048575
  %cmp.i.i = icmp ult i32 %bf.cast.i.i, 1048574
  br i1 %cmp.i.i, label %if.then.i.i, label %if.else.i.i

if.then.i.i:                                      ; preds = %entry
  %bf.value.i.i = add i64 %bf.load.i.i, 1099511627776
  %bf.shl.i.i = and i64 %bf.value.i.i, 1152920405095219200
  %bf.clear7.i.i = and i64 %bf.load.i.i, -1152920405095219201
  %bf.set.i.i = or disjoint i64 %bf.shl.i.i, %bf.clear7.i.i
  store i64 %bf.set.i.i, ptr %1, align 8
  br label %invoke.cont

if.else.i.i:                                      ; preds = %entry
  %cmp12.i.i = icmp eq i32 %bf.cast.i.i, 1048574
  br i1 %cmp12.i.i, label %if.then13.i.i, label %invoke.cont

if.then13.i.i:                                    ; preds = %if.else.i.i
  %bf.set23.i.i = or i64 %bf.load.i.i, 1152920405095219200
  store i64 %bf.set23.i.i, ptr %1, align 8
  invoke void @_ZN4cvc58internal4expr9NodeValue20markRefCountMaxedOutEv(ptr noundef nonnull align 8 dereferenceable(16) %1)
          to label %invoke.cont unwind label %lpad

invoke.cont:                                      ; preds = %if.else.i.i, %if.then.i.i, %if.then13.i.i
  invoke void @_ZN4cvc58internal6theory11quantifiers9ExprMiner7doCheckENS0_12NodeTemplateILb1EEERKNS1_18SubsolverSetupInfoE(ptr nonnull sret(%"class.cvc5::internal::Result") align 8 %r, ptr noundef nonnull align 8 dereferenceable(120) %this, ptr noundef nonnull %agg.tmp, ptr noundef nonnull align 8 dereferenceable(32) %ssi)
          to label %invoke.cont3 unwind label %lpad2

invoke.cont3:                                     ; preds = %invoke.cont
  %3 = load ptr, ptr %agg.tmp, align 8
  %bf.load.i.i3 = load i64, ptr %3, align 8
  %4 = and i64 %bf.load.i.i3, 1152920405095219200
  %cmp.not.i.i = icmp eq i64 %4, 1152920405095219200
  br i1 %cmp.not.i.i, label %_ZN4cvc58internal12NodeTemplateILb1EED2Ev.exit, label %if.then.i.i4

if.then.i.i4:                                     ; preds = %invoke.cont3
  %bf.value.i.i5 = add i64 %bf.load.i.i3, 1152920405095219200
  %bf.shl.i.i6 = and i64 %bf.value.i.i5, 1152920405095219200
  %bf.clear7.i.i7 = and i64 %bf.load.i.i3, -1152920405095219201
  %bf.set.i.i8 = or disjoint i64 %bf.shl.i.i6, %bf.clear7.i.i7
  store i64 %bf.set.i.i8, ptr %3, align 8
  %cmp12.i.i9 = icmp eq i64 %bf.shl.i.i6, 0
  br i1 %cmp12.i.i9, label %if.then13.i.i10, label %_ZN4cvc58internal12NodeTemplateILb1EED2Ev.exit

if.then13.i.i10:                                  ; preds = %if.then.i.i4
  invoke void @_ZN4cvc58internal4expr9NodeValue15markForDeletionEv(ptr noundef nonnull align 8 dereferenceable(16) %3)
          to label %_ZN4cvc58internal12NodeTemplateILb1EED2Ev.exit unwind label %terminate.lpad.i

terminate.lpad.i:                                 ; preds = %if.then13.i.i10
  %5 = landingpad { ptr, i32 }
          catch ptr null
  %6 = extractvalue { ptr, i32 } %5, 0
  call void @__clang_call_terminate(ptr %6) #13
  unreachable

_ZN4cvc58internal12NodeTemplateILb1EED2Ev.exit:   ; preds = %invoke.cont3, %if.then.i.i4, %if.then13.i.i10
  %7 = load ptr, ptr %n, align 8
  store ptr %7, ptr %agg.tmp4, align 8
  %bf.load.i.i11 = load i64, ptr %7, align 8
  %bf.lshr.i.i12 = lshr i64 %bf.load.i.i11, 40
  %8 = trunc i64 %bf.lshr.i.i12 to i32
  %bf.cast.i.i13 = and i32 %8, 1048575
  %cmp.i.i14 = icmp ult i32 %bf.cast.i.i13, 1048574
  br i1 %cmp.i.i14, label %if.then.i.i19, label %if.else.i.i15

if.then.i.i19:                                    ; preds = %_ZN4cvc58internal12NodeTemplateILb1EED2Ev.exit
  %bf.value.i.i20 = add i64 %bf.load.i.i11, 1099511627776
  %bf.shl.i.i21 = and i64 %bf.value.i.i20, 1152920405095219200
  %bf.clear7.i.i22 = and i64 %bf.load.i.i11, -1152920405095219201
  %bf.set.i.i23 = or disjoint i64 %bf.shl.i.i21, %bf.clear7.i.i22
  store i64 %bf.set.i.i23, ptr %7, align 8
  br label %invoke.cont6

if.else.i.i15:                                    ; preds = %_ZN4cvc58internal12NodeTemplateILb1EED2Ev.exit
  %cmp12.i.i16 = icmp eq i32 %bf.cast.i.i13, 1048574
  br i1 %cmp12.i.i16, label %if.then13.i.i17, label %invoke.cont6

if.then13.i.i17:                                  ; preds = %if.else.i.i15
  %bf.set23.i.i18 = or i64 %bf.load.i.i11, 1152920405095219200
  store i64 %bf.set23.i.i18, ptr %7, align 8
  invoke void @_ZN4cvc58internal4expr9NodeValue20markRefCountMaxedOutEv(ptr noundef nonnull align 8 dereferenceable(16) %7)
          to label %invoke.cont6 unwind label %lpad5

invoke.cont6:                                     ; preds = %if.else.i.i15, %if.then.i.i19, %if.then13.i.i17
  invoke void @_ZN4cvc58internal6theory11quantifiers14QueryGenerator9dumpQueryENS0_12NodeTemplateILb1EEERKNS0_6ResultERSt6vectorIS5_SaIS5_EE(ptr noundef nonnull align 8 dereferenceable(128) %this, ptr noundef nonnull %agg.tmp4, ptr noundef nonnull align 8 dereferenceable(40) %r, ptr noundef nonnull align 8 dereferenceable(24) %queries)
          to label %invoke.cont8 unwind label %lpad7

invoke.cont8:                                     ; preds = %invoke.cont6
  %9 = load ptr, ptr %agg.tmp4, align 8
  %bf.load.i.i26 = load i64, ptr %9, align 8
  %10 = and i64 %bf.load.i.i26, 1152920405095219200
  %cmp.not.i.i27 = icmp eq i64 %10, 1152920405095219200
  br i1 %cmp.not.i.i27, label %_ZN4cvc58internal12NodeTemplateILb1EED2Ev.exit36, label %if.then.i.i28

if.then.i.i28:                                    ; preds = %invoke.cont8
  %bf.value.i.i29 = add i64 %bf.load.i.i26, 1152920405095219200
  %bf.shl.i.i30 = and i64 %bf.value.i.i29, 1152920405095219200
  %bf.clear7.i.i31 = and i64 %bf.load.i.i26, -1152920405095219201
  %bf.set.i.i32 = or disjoint i64 %bf.shl.i.i30, %bf.clear7.i.i31
  store i64 %bf.set.i.i32, ptr %9, align 8
  %cmp12.i.i33 = icmp eq i64 %bf.shl.i.i30, 0
  br i1 %cmp12.i.i33, label %if.then13.i.i34, label %_ZN4cvc58internal12NodeTemplateILb1EED2Ev.exit36

if.then13.i.i34:                                  ; preds = %if.then.i.i28
  invoke void @_ZN4cvc58internal4expr9NodeValue15markForDeletionEv(ptr noundef nonnull align 8 dereferenceable(16) %9)
          to label %_ZN4cvc58internal12NodeTemplateILb1EED2Ev.exit36 unwind label %terminate.lpad.i35

terminate.lpad.i35:                               ; preds = %if.then13.i.i34
  %11 = landingpad { ptr, i32 }
          catch ptr null
  %12 = extractvalue { ptr, i32 } %11, 0
  call void @__clang_call_terminate(ptr %12) #13
  unreachable

_ZN4cvc58internal12NodeTemplateILb1EED2Ev.exit36: ; preds = %invoke.cont8, %if.then.i.i28, %if.then13.i.i34
  %d_inputName.i = getelementptr inbounds i8, ptr %r, i64 8
  call void @_ZNSt7__cxx1112basic_stringIcSt11char_traitsIcESaIcEED1Ev(ptr noundef nonnull align 8 dereferenceable(32) %d_inputName.i) #14
  %d_sepDataType.i = getelementptr inbounds i8, ptr %ssi, i64 24
  %13 = load ptr, ptr %d_sepDataType.i, align 8
  %bf.load.i.i.i = load i64, ptr %13, align 8
  %14 = and i64 %bf.load.i.i.i, 1152920405095219200
  %cmp.not.i.i.i = icmp eq i64 %14, 1152920405095219200
  br i1 %cmp.not.i.i.i, label %_ZN4cvc58internal8TypeNodeD2Ev.exit.i, label %if.then.i.i.i

if.then.i.i.i:                                    ; preds = %_ZN4cvc58internal12NodeTemplateILb1EED2Ev.exit36
  %bf.value.i.i.i = add i64 %bf.load.i.i.i, 1152920405095219200
  %bf.shl.i.i.i = and i64 %bf.value.i.i.i, 1152920405095219200
  %bf.clear7.i.i.i = and i64 %bf.load.i.i.i, -1152920405095219201
  %bf.set.i.i.i = or disjoint i64 %bf.shl.i.i.i, %bf.clear7.i.i.i
  store i64 %bf.set.i.i.i, ptr %13, align 8
  %cmp12.i.i.i = icmp eq i64 %bf.shl.i.i.i, 0
  br i1 %cmp12.i.i.i, label %if.then13.i.i.i, label %_ZN4cvc58internal8TypeNodeD2Ev.exit.i

if.then13.i.i.i:                                  ; preds = %if.then.i.i.i
  invoke void @_ZN4cvc58internal4expr9NodeValue15markForDeletionEv(ptr noundef nonnull align 8 dereferenceable(16) %13)
          to label %_ZN4cvc58internal8TypeNodeD2Ev.exit.i unwind label %terminate.lpad.i.i

terminate.lpad.i.i:                               ; preds = %if.then13.i.i.i
  %15 = landingpad { ptr, i32 }
          catch ptr null
  %16 = extractvalue { ptr, i32 } %15, 0
  call void @__clang_call_terminate(ptr %16) #13
  unreachable

_ZN4cvc58internal8TypeNodeD2Ev.exit.i:            ; preds = %if.then13.i.i.i, %if.then.i.i.i, %_ZN4cvc58internal12NodeTemplateILb1EED2Ev.exit36
  %d_sepLocType.i = getelementptr inbounds i8, ptr %ssi, i64 16
  %17 = load ptr, ptr %d_sepLocType.i, align 8
  %bf.load.i.i1.i = load i64, ptr %17, align 8
  %18 = and i64 %bf.load.i.i1.i, 1152920405095219200
  %cmp.not.i.i2.i = icmp eq i64 %18, 1152920405095219200
  br i1 %cmp.not.i.i2.i, label %_ZN4cvc58internal6theory18SubsolverSetupInfoD2Ev.exit, label %if.then.i.i3.i

if.then.i.i3.i:                                   ; preds = %_ZN4cvc58internal8TypeNodeD2Ev.exit.i
  %bf.value.i.i4.i = add i64 %bf.load.i.i1.i, 1152920405095219200
  %bf.shl.i.i5.i = and i64 %bf.value.i.i4.i, 1152920405095219200
  %bf.clear7.i.i6.i = and i64 %bf.load.i.i1.i, -1152920405095219201
  %bf.set.i.i7.i = or disjoint i64 %bf.shl.i.i5.i, %bf.clear7.i.i6.i
  store i64 %bf.set.i.i7.i, ptr %17, align 8
  %cmp12.i.i8.i = icmp eq i64 %bf.shl.i.i5.i, 0
  br i1 %cmp12.i.i8.i, label %if.then13.i.i9.i, label %_ZN4cvc58internal6theory18SubsolverSetupInfoD2Ev.exit

if.then13.i.i9.i:                                 ; preds = %if.then.i.i3.i
  invoke void @_ZN4cvc58internal4expr9NodeValue15markForDeletionEv(ptr noundef nonnull align 8 dereferenceable(16) %17)
          to label %_ZN4cvc58internal6theory18SubsolverSetupInfoD2Ev.exit unwind label %terminate.lpad.i10.i

terminate.lpad.i10.i:                             ; preds = %if.then13.i.i9.i
  %19 = landingpad { ptr, i32 }
          catch ptr null
  %20 = extractvalue { ptr, i32 } %19, 0
  call void @__clang_call_terminate(ptr %20) #13
  unreachable

_ZN4cvc58internal6theory18SubsolverSetupInfoD2Ev.exit: ; preds = %_ZN4cvc58internal8TypeNodeD2Ev.exit.i, %if.then.i.i3.i, %if.then13.i.i9.i
  ret i1 true

lpad:                                             ; preds = %if.then13.i.i
  %21 = landingpad { ptr, i32 }
          cleanup
  br label %ehcleanup9

lpad2:                                            ; preds = %invoke.cont
  %22 = landingpad { ptr, i32 }
          cleanup
  call void @_ZN4cvc58internal12NodeTemplateILb1EED2Ev(ptr noundef nonnull align 8 dereferenceable(8) %agg.tmp) #14
  br label %ehcleanup9

lpad5:                                            ; preds = %if.then13.i.i17
  %23 = landingpad { ptr, i32 }
          cleanup
  br label %ehcleanup

lpad7:                                            ; preds = %invoke.cont6
  %24 = landingpad { ptr, i32 }
          cleanup
  call void @_ZN4cvc58internal12NodeTemplateILb1EED2Ev(ptr noundef nonnull align 8 dereferenceable(8) %agg.tmp4) #14
  br label %ehcleanup

ehcleanup:                                        ; preds = %lpad7, %lpad5
  %.pn = phi { ptr, i32 } [ %24, %lpad7 ], [ %23, %lpad5 ]
  %d_inputName.i37 = getelementptr inbounds i8, ptr %r, i64 8
  call void @_ZNSt7__cxx1112basic_stringIcSt11char_traitsIcESaIcEED1Ev(ptr noundef nonnull align 8 dereferenceable(32) %d_inputName.i37) #14
  br label %ehcleanup9

ehcleanup9:                                       ; preds = %ehcleanup, %lpad2, %lpad
  %.pn.pn = phi { ptr, i32 } [ %.pn, %ehcleanup ], [ %22, %lpad2 ], [ %21, %lpad ]
  call void @_ZN4cvc58internal6theory18SubsolverSetupInfoD2Ev(ptr noundef nonnull align 8 dereferenceable(32) %ssi) #14
  resume { ptr, i32 } %.pn.pn
}